target datalayout = "e-m:e-p270:32:32-p271:32:32-p272:64:64-i64:64-i128:128-f80:128-n8:16:32:64-S128"
target triple = "x86_64-pc-linux-gnu"

%struct.cli_ctx_tag = type { ptr, ptr, ptr, ptr, ptr, ptr, ptr, i64, ptr, i32, i32, ptr, i32, i32, ptr, [16 x i8], ptr, ptr, ptr, ptr, ptr, ptr, %struct.timeval, i8, i8 }
%struct.timeval = type { i64, i64 }
%struct.cl_engine = type { i32, i32, i32, [2 x i32], i32, i32, i32, ptr, i32, i64, i32, i32, i64, i64, i32, i32, i32, i32, ptr, ptr, ptr, ptr, ptr, ptr, ptr, ptr, ptr, ptr, ptr, ptr, ptr, ptr, ptr, ptr, ptr, ptr, ptr, i64, ptr, %struct.crtmgr, ptr, ptr, ptr, ptr, ptr, ptr, ptr, ptr, ptr, ptr, ptr, ptr, ptr, ptr, ptr, ptr, ptr, %struct.cli_all_bc, [7 x ptr], [7 x i32], i32, i32, i32, i32, i64, i64, i64, i64, i64, ptr, ptr, ptr, ptr, ptr, ptr, ptr, ptr, ptr, i32, i32, i32, i64, i64, i64, ptr }
%struct.crtmgr = type { ptr, i32 }
%struct.cli_all_bc = type { ptr, i32, ptr, %struct.cli_environment, i32 }
%struct.cli_environment = type { i32, i32, i32, i32, i32, i32, i32, [65 x i8], [65 x i8], [65 x i8], [65 x i8], [65 x i8], [65 x i8], [65 x i8], i8, i8, i8, i8, i8, i8, i8, i8, i8 }

@.str.296 = private unnamed_addr constant [8 x i8] c"pdf-tmp\00", align 1
@.str.297 = private unnamed_addr constant [50 x i8] c"Can't create temporary directory for PDF file %s\0A\00", align 1

; Function Attrs: nounwind uwtable
define internal i32 @cli_scanpdf(ptr noundef %0, i64 noundef %1) #0 {
  %3 = alloca i32, align 4
  %4 = alloca ptr, align 8
  %5 = alloca i64, align 8
  %6 = alloca i32, align 4
  %7 = alloca ptr, align 8
  store ptr %0, ptr %4, align 8
  store i64 %1, ptr %5, align 8
  %8 = load ptr, ptr %4, align 8
  %9 = getelementptr inbounds %struct.cli_ctx_tag, ptr %8, i32 0, i32 2
  %10 = load ptr, ptr %9, align 8
  %11 = call ptr @cli_gentemp_with_prefix(ptr noundef %10, ptr noundef @.str.296)
  store ptr %11, ptr %7, align 8
  %12 = load ptr, ptr %7, align 8
  %13 = icmp ne ptr %12, null
  br i1 %13, label %15, label %14

14:                                               ; preds = %2
  store i32 20, ptr %3, align 4
  br label %39

15:                                               ; preds = %2
  %16 = load ptr, ptr %7, align 8
  %17 = call i32 @mkdir(ptr noundef %16, i32 noundef 448) #11
  %18 = icmp ne i32 %17, 0
  br i1 %18, label %19, label %22

19:                                               ; preds = %15
  %20 = load ptr, ptr %7, align 8
  call void (ptr, ...) @cli_dbgmsg(ptr noundef @.str.297, ptr noundef %20)
  %21 = load ptr, ptr %7, align 8
  call void @free(ptr noundef %21) #11
  store i32 18, ptr %3, align 4
  br label %39

22:                                               ; preds = %15
  %23 = load ptr, ptr %7, align 8
  %24 = load ptr, ptr %4, align 8
  %25 = load i64, ptr %5, align 8
  %26 = call i32 @cli_pdf(ptr noundef %23, ptr noundef %24, i64 noundef %25)
  store i32 %26, ptr %6, align 4
  %27 = load ptr, ptr %4, align 8
  %28 = getelementptr inbounds %struct.cli_ctx_tag, ptr %27, i32 0, i32 6
  %29 = load ptr, ptr %28, align 8
  %30 = getelementptr inbounds %struct.cl_engine, ptr %29, i32 0, i32 8
  %31 = load i32, ptr %30, align 8
  %32 = icmp ne i32 %31, 0
  br i1 %32, label %36, label %33

33:                                               ; preds = %22
  %34 = load ptr, ptr %7, align 8
  %35 = call i32 @cli_rmdirs(ptr noundef %34)
  br label %36

36:                                               ; preds = %33, %22
  %37 = load ptr, ptr %7, align 8
  call void @free(ptr noundef %37) #11
  %38 = load i32, ptr %6, align 4
  store i32 %38, ptr %3, align 4
  br label %39

39:                                               ; preds = %36, %19, %14
  %40 = load i32, ptr %3, align 4
  ret i32 %40
}