; Function Attrs: nounwind uwtable
define internal fastcc i32 @cli_scanpdf(ptr noundef %0) unnamed_addr #0 {
  %2 = getelementptr inbounds nuw i8, ptr %0, i64 16
  %3 = load ptr, ptr %2, align 8
  %4 = tail call ptr @cli_gentemp_with_prefix(ptr noundef %3, ptr noundef nonnull @.str.296) #16
  %.not = icmp eq ptr %4, null
  br i1 %.not, label %16, label %5

5:                                                ; preds = %1
  %6 = tail call i32 @mkdir(ptr noundef nonnull %4, i32 noundef 448) #16
  %.not13 = icmp eq i32 %6, 0
  br i1 %.not13, label %8, label %7

7:                                                ; preds = %5
  tail call void (ptr, ...) @cli_dbgmsg(ptr noundef nonnull @.str.297, ptr noundef nonnull %4) #16
  br label %.sink.split

8:                                                ; preds = %5
  %9 = tail call i32 @cli_pdf(ptr noundef nonnull %4, ptr noundef nonnull %0, i64 noundef 0) #16
  %10 = getelementptr inbounds nuw i8, ptr %0, i64 48
  %11 = load ptr, ptr %10, align 8
  %12 = getelementptr inbounds nuw i8, ptr %11, i64 40
  %13 = load i32, ptr %12, align 8
  %.not14 = icmp eq i32 %13, 0
  br i1 %.not14, label %14, label %.sink.split

14:                                               ; preds = %8
  %15 = tail call i32 @cli_rmdirs(ptr noundef nonnull %4) #16
  br label %.sink.split

.sink.split:                                      ; preds = %8, %14, %7
  %.0.ph = phi i32 [ 18, %7 ], [ %9, %14 ], [ %9, %8 ]
  tail call void @free(ptr noundef nonnull %4) #16
  br label %16

16:                                               ; preds = %.sink.split, %1
  %.0 = phi i32 [ 20, %1 ], [ %.0.ph, %.sink.split ]
  ret i32 %.0
}